target datalayout = "e-m:e-p270:32:32-p271:32:32-p272:64:64-i64:64-i128:128-f80:128-n8:16:32:64-S128"
target triple = "x86_64-pc-linux-gnu"

%struct.pmix_class_t = type { ptr, ptr, ptr, ptr, i32, i32, ptr, ptr, i64 }
%struct.pmix_list_t = type { %struct.pmix_object_t, %struct.pmix_list_item_t, i64 }
%struct.pmix_object_t = type { %union.pthread_mutex_t, ptr, i32, %struct.pmix_tma }
%union.pthread_mutex_t = type { %struct.__pthread_mutex_s }
%struct.__pthread_mutex_s = type { i32, i32, i32, i32, i32, i16, i16, %struct.__pthread_internal_list }
%struct.__pthread_internal_list = type { ptr, ptr }
%struct.pmix_tma = type { ptr, ptr, ptr, ptr, ptr, ptr, ptr, ptr }
%struct.pmix_list_item_t = type { %struct.pmix_object_t, ptr, ptr, i32 }
%struct.pmix_ptl_base_t = type { i8, i8, %struct.pmix_list_t, %struct.pmix_list_t, %struct.pmix_listener_t, ptr, i32, i64, ptr, ptr, ptr, ptr, ptr, ptr, ptr, ptr, ptr, ptr, ptr, ptr, i8, i8, i8, i8, i8, i8, i8, i8, i8, i8, i8, i8, i8, i8, ptr, ptr, i32, i8, i32, i8, i32, i32, i32, i32 }
%struct.pmix_listener_t = type { %struct.pmix_list_item_t, %struct.event, i8, i16, i32, ptr, ptr, i32, i8, i32, i8, i32, ptr }
%struct.event = type { %struct.event_callback, %union.anon.0, i32, ptr, %union.anon.2, i16, i16, %struct.timeval }
%struct.event_callback = type { %struct.anon, i16, i8, i8, %union.anon, ptr }
%struct.anon = type { ptr, ptr }
%union.anon = type { ptr }
%union.anon.0 = type { %struct.anon.1 }
%struct.anon.1 = type { ptr, ptr }
%union.anon.2 = type { %struct.anon.3 }
%struct.anon.3 = type { %struct.anon.4, %struct.timeval }
%struct.anon.4 = type { ptr, ptr }
%struct.timeval = type { i64, i64 }
%struct.pmix_ptl_posted_recv_t = type { %struct.pmix_list_item_t, %struct.event, i32, ptr, ptr }

@pmix_ptl_base = external global %struct.pmix_ptl_base_t, align 8
@.str.2 = private unnamed_addr constant [21 x i8] c"pthread_mutex_lock()\00", align 1

; Function Attrs: inlinehint nounwind uwtable
define internal void @pmix_tma_free(ptr noundef %0, ptr noundef %1) #2 {
  %3 = alloca ptr, align 8
  %4 = alloca ptr, align 8
  store ptr %0, ptr %3, align 8, !tbaa !44
  store ptr %1, ptr %4, align 8, !tbaa !33
  %5 = load ptr, ptr %3, align 8, !tbaa !44
  %6 = icmp ne ptr null, %5
  br i1 %6, label %7, label %13

7:                                                ; preds = %2
  %8 = load ptr, ptr %3, align 8, !tbaa !44
  %9 = getelementptr inbounds nuw %struct.pmix_tma, ptr %8, i32 0, i32 5
  %10 = load ptr, ptr %9, align 8, !tbaa !93
  %11 = load ptr, ptr %3, align 8, !tbaa !44
  %12 = load ptr, ptr %4, align 8, !tbaa !33
  call void %10(ptr noundef %11, ptr noundef %12)
  br label %15

13:                                               ; preds = %2
  %14 = load ptr, ptr %4, align 8, !tbaa !33
  call void @free(ptr noundef %14) #10
  br label %15

15:                                               ; preds = %13, %7
  ret void
}

; Function Attrs: inlinehint nounwind uwtable
define internal void @pmix_obj_run_destructors(ptr noundef %0) #2 {
  %2 = alloca ptr, align 8
  %3 = alloca ptr, align 8
  store ptr %0, ptr %2, align 8, !tbaa !48
  call void @llvm.lifetime.start.p0(i64 8, ptr %3) #10
  %4 = load ptr, ptr %2, align 8, !tbaa !48
  %5 = getelementptr inbounds nuw %struct.pmix_object_t, ptr %4, i32 0, i32 1
  %6 = load ptr, ptr %5, align 8, !tbaa !52
  %7 = getelementptr inbounds nuw %struct.pmix_class_t, ptr %6, i32 0, i32 7
  %8 = load ptr, ptr %7, align 8, !tbaa !91
  store ptr %8, ptr %3, align 8, !tbaa !33
  br label %9

9:                                                ; preds = %13, %1
  %10 = load ptr, ptr %3, align 8, !tbaa !33
  %11 = load ptr, ptr %10, align 8, !tbaa !33
  %12 = icmp ne ptr null, %11
  br i1 %12, label %13, label %19

13:                                               ; preds = %9
  %14 = load ptr, ptr %3, align 8, !tbaa !33
  %15 = load ptr, ptr %14, align 8, !tbaa !33
  %16 = load ptr, ptr %2, align 8, !tbaa !48
  call void %15(ptr noundef %16)
  %17 = load ptr, ptr %3, align 8, !tbaa !33
  %18 = getelementptr inbounds nuw ptr, ptr %17, i32 1
  store ptr %18, ptr %3, align 8, !tbaa !33
  br label %9, !llvm.loop !92

19:                                               ; preds = %9
  call void @llvm.lifetime.end.p0(i64 8, ptr %3) #10
  ret void
}

; Function Attrs: alwaysinline nounwind uwtable
define internal i32 @pmix_obj_update(ptr noundef %0, i32 noundef %1) #4 {
  %3 = alloca ptr, align 8
  %4 = alloca i32, align 4
  %5 = alloca i32, align 4
  store ptr %0, ptr %3, align 8, !tbaa !48
  store i32 %1, ptr %4, align 4, !tbaa !50
  call void @llvm.lifetime.start.p0(i64 4, ptr %5) #10
  %6 = load ptr, ptr %3, align 8, !tbaa !48
  %7 = getelementptr inbounds nuw %struct.pmix_object_t, ptr %6, i32 0, i32 0
  %8 = call i32 @pthread_mutex_lock(ptr noundef %7) #10
  store i32 %8, ptr %5, align 4, !tbaa !50
  %9 = load i32, ptr %5, align 4, !tbaa !50
  %10 = icmp eq i32 %9, 35
  br i1 %10, label %11, label %14

11:                                               ; preds = %2
  %12 = load i32, ptr %5, align 4, !tbaa !50
  %13 = call ptr @__errno_location() #11
  store i32 %12, ptr %13, align 4, !tbaa !50
  call void @perror(ptr noundef @.str.2)
  call void @abort() #12
  unreachable

14:                                               ; preds = %2
  %15 = load i32, ptr %4, align 4, !tbaa !50
  %16 = load ptr, ptr %3, align 8, !tbaa !48
  %17 = getelementptr inbounds nuw %struct.pmix_object_t, ptr %16, i32 0, i32 2
  %18 = load i32, ptr %17, align 8, !tbaa !53
  %19 = add nsw i32 %18, %15
  store i32 %19, ptr %17, align 8, !tbaa !53
  store i32 %19, ptr %5, align 4, !tbaa !50
  %20 = load ptr, ptr %3, align 8, !tbaa !48
  %21 = getelementptr inbounds nuw %struct.pmix_object_t, ptr %20, i32 0, i32 0
  %22 = call i32 @pthread_mutex_unlock(ptr noundef %21) #10
  %23 = load i32, ptr %5, align 4, !tbaa !50
  call void @llvm.lifetime.end.p0(i64 4, ptr %5) #10
  ret i32 %23
}

; Function Attrs: inlinehint nounwind uwtable
define internal ptr @pmix_list_remove_item(ptr noundef %0, ptr noundef %1) #2 {
  %3 = alloca ptr, align 8
  %4 = alloca ptr, align 8
  store ptr %0, ptr %3, align 8, !tbaa !62
  store ptr %1, ptr %4, align 8, !tbaa !64
  %5 = load ptr, ptr %4, align 8, !tbaa !64
  %6 = getelementptr inbounds nuw %struct.pmix_list_item_t, ptr %5, i32 0, i32 1
  %7 = load ptr, ptr %6, align 8, !tbaa !65
  %8 = load ptr, ptr %4, align 8, !tbaa !64
  %9 = getelementptr inbounds nuw %struct.pmix_list_item_t, ptr %8, i32 0, i32 2
  %10 = load ptr, ptr %9, align 8, !tbaa !66
  %11 = getelementptr inbounds nuw %struct.pmix_list_item_t, ptr %10, i32 0, i32 1
  store volatile ptr %7, ptr %11, align 8, !tbaa !65
  %12 = load ptr, ptr %4, align 8, !tbaa !64
  %13 = getelementptr inbounds nuw %struct.pmix_list_item_t, ptr %12, i32 0, i32 2
  %14 = load ptr, ptr %13, align 8, !tbaa !66
  %15 = load ptr, ptr %4, align 8, !tbaa !64
  %16 = getelementptr inbounds nuw %struct.pmix_list_item_t, ptr %15, i32 0, i32 1
  %17 = load ptr, ptr %16, align 8, !tbaa !65
  %18 = getelementptr inbounds nuw %struct.pmix_list_item_t, ptr %17, i32 0, i32 2
  store volatile ptr %14, ptr %18, align 8, !tbaa !66
  %19 = load ptr, ptr %3, align 8, !tbaa !62
  %20 = getelementptr inbounds nuw %struct.pmix_list_t, ptr %19, i32 0, i32 2
  %21 = load volatile i64, ptr %20, align 8, !tbaa !67
  %22 = add i64 %21, -1
  store volatile i64 %22, ptr %20, align 8, !tbaa !67
  %23 = load ptr, ptr %4, align 8, !tbaa !64
  %24 = getelementptr inbounds nuw %struct.pmix_list_item_t, ptr %23, i32 0, i32 2
  %25 = load ptr, ptr %24, align 8, !tbaa !66
  ret ptr %25
}

; Function Attrs: nounwind uwtable
define void @pmix_ptl_base_cancel_recv(i32 noundef %0, i16 noundef signext %1, ptr noundef %2) #0 {
  %4 = alloca i32, align 4
  %5 = alloca i16, align 2
  %6 = alloca ptr, align 8
  %7 = alloca ptr, align 8
  %8 = alloca ptr, align 8
  %9 = alloca ptr, align 8
  %10 = alloca ptr, align 8
  %11 = alloca i32, align 4
  %12 = alloca ptr, align 8
  store i32 %0, ptr %4, align 4, !tbaa !50
  store i16 %1, ptr %5, align 2, !tbaa !68
  store ptr %2, ptr %6, align 8, !tbaa !33
  call void @llvm.lifetime.start.p0(i64 8, ptr %7) #10
  %13 = load ptr, ptr %6, align 8, !tbaa !33
  store ptr %13, ptr %7, align 8, !tbaa !33
  call void @llvm.lifetime.start.p0(i64 8, ptr %8) #10
  %14 = load ptr, ptr getelementptr inbounds nuw (%struct.pmix_list_item_t, ptr getelementptr inbounds nuw (%struct.pmix_list_t, ptr getelementptr inbounds nuw (%struct.pmix_ptl_base_t, ptr @pmix_ptl_base, i32 0, i32 2), i32 0, i32 1), i32 0, i32 1), align 8, !tbaa !94
  store ptr %14, ptr %8, align 8, !tbaa !33
  br label %15

15:                                               ; preds = %75, %3
  %16 = load ptr, ptr %8, align 8, !tbaa !33
  %17 = icmp ne ptr %16, getelementptr inbounds nuw (%struct.pmix_list_t, ptr getelementptr inbounds nuw (%struct.pmix_ptl_base_t, ptr @pmix_ptl_base, i32 0, i32 2), i32 0, i32 1)
  br i1 %17, label %18, label %79

18:                                               ; preds = %15
  %19 = load ptr, ptr %8, align 8, !tbaa !33
  %20 = getelementptr inbounds nuw %struct.pmix_ptl_posted_recv_t, ptr %19, i32 0, i32 2
  %21 = load i32, ptr %20, align 8, !tbaa !34
  %22 = load ptr, ptr %7, align 8, !tbaa !33
  %23 = getelementptr inbounds nuw %struct.pmix_ptl_posted_recv_t, ptr %22, i32 0, i32 2
  %24 = load i32, ptr %23, align 8, !tbaa !34
  %25 = icmp eq i32 %21, %24
  br i1 %25, label %26, label %74

26:                                               ; preds = %18
  %27 = load ptr, ptr %8, align 8, !tbaa !33
  %28 = getelementptr inbounds nuw %struct.pmix_ptl_posted_recv_t, ptr %27, i32 0, i32 0
  %29 = call ptr @pmix_list_remove_item(ptr noundef getelementptr inbounds nuw (%struct.pmix_ptl_base_t, ptr @pmix_ptl_base, i32 0, i32 2), ptr noundef %28)
  br label %30

30:                                               ; preds = %26
  call void @llvm.lifetime.start.p0(i64 8, ptr %9) #10
  %31 = load ptr, ptr %8, align 8, !tbaa !33
  store ptr %31, ptr %9, align 8, !tbaa !48
  %32 = load ptr, ptr %9, align 8, !tbaa !48
  %33 = call i32 @pmix_obj_update(ptr noundef %32, i32 noundef -1)
  %34 = icmp eq i32 0, %33
  br i1 %34, label %35, label %49

35:                                               ; preds = %30
  %36 = load ptr, ptr %9, align 8, !tbaa !48
  call void @pmix_obj_run_destructors(ptr noundef %36)
  %37 = load ptr, ptr %9, align 8, !tbaa !48
  %38 = getelementptr inbounds nuw %struct.pmix_object_t, ptr %37, i32 0, i32 3
  %39 = getelementptr inbounds nuw %struct.pmix_tma, ptr %38, i32 0, i32 5
  %40 = load ptr, ptr %39, align 8, !tbaa !58
  %41 = icmp ne ptr null, %40
  br i1 %41, label %42, label %46

42:                                               ; preds = %35
  %43 = load ptr, ptr %9, align 8, !tbaa !48
  %44 = getelementptr inbounds nuw %struct.pmix_object_t, ptr %43, i32 0, i32 3
  %45 = load ptr, ptr %8, align 8, !tbaa !33
  call void @pmix_tma_free(ptr noundef %44, ptr noundef %45)
  br label %48

46:                                               ; preds = %35
  %47 = load ptr, ptr %8, align 8, !tbaa !33
  call void @free(ptr noundef %47) #10
  br label %48

48:                                               ; preds = %46, %42
  store ptr null, ptr %8, align 8, !tbaa !33
  br label %49

49:                                               ; preds = %48, %30
  call void @llvm.lifetime.end.p0(i64 8, ptr %9) #10
  br label %50

50:                                               ; preds = %49
  br label %51

51:                                               ; preds = %50
  br label %52

52:                                               ; preds = %51
  call void @llvm.lifetime.start.p0(i64 8, ptr %10) #10
  %53 = load ptr, ptr %7, align 8, !tbaa !33
  store ptr %53, ptr %10, align 8, !tbaa !48
  %54 = load ptr, ptr %10, align 8, !tbaa !48
  %55 = call i32 @pmix_obj_update(ptr noundef %54, i32 noundef -1)
  %56 = icmp eq i32 0, %55
  br i1 %56, label %57, label %71

57:                                               ; preds = %52
  %58 = load ptr, ptr %10, align 8, !tbaa !48
  call void @pmix_obj_run_destructors(ptr noundef %58)
  %59 = load ptr, ptr %10, align 8, !tbaa !48
  %60 = getelementptr inbounds nuw %struct.pmix_object_t, ptr %59, i32 0, i32 3
  %61 = getelementptr inbounds nuw %struct.pmix_tma, ptr %60, i32 0, i32 5
  %62 = load ptr, ptr %61, align 8, !tbaa !58
  %63 = icmp ne ptr null, %62
  br i1 %63, label %64, label %68

64:                                               ; preds = %57
  %65 = load ptr, ptr %10, align 8, !tbaa !48
  %66 = getelementptr inbounds nuw %struct.pmix_object_t, ptr %65, i32 0, i32 3
  %67 = load ptr, ptr %7, align 8, !tbaa !33
  call void @pmix_tma_free(ptr noundef %66, ptr noundef %67)
  br label %70

68:                                               ; preds = %57
  %69 = load ptr, ptr %7, align 8, !tbaa !33
  call void @free(ptr noundef %69) #10
  br label %70

70:                                               ; preds = %68, %64
  store ptr null, ptr %7, align 8, !tbaa !33
  br label %71

71:                                               ; preds = %70, %52
  call void @llvm.lifetime.end.p0(i64 8, ptr %10) #10
  br label %72

72:                                               ; preds = %71
  br label %73

73:                                               ; preds = %72
  store i32 1, ptr %11, align 4
  br label %102

74:                                               ; preds = %18
  br label %75

75:                                               ; preds = %74
  %76 = load ptr, ptr %8, align 8, !tbaa !33
  %77 = getelementptr inbounds nuw %struct.pmix_list_item_t, ptr %76, i32 0, i32 1
  %78 = load ptr, ptr %77, align 8, !tbaa !65
  store ptr %78, ptr %8, align 8, !tbaa !33
  br label %15, !llvm.loop !95

79:                                               ; preds = %15
  br label %80

80:                                               ; preds = %79
  call void @llvm.lifetime.start.p0(i64 8, ptr %12) #10
  %81 = load ptr, ptr %7, align 8, !tbaa !33
  store ptr %81, ptr %12, align 8, !tbaa !48
  %82 = load ptr, ptr %12, align 8, !tbaa !48
  %83 = call i32 @pmix_obj_update(ptr noundef %82, i32 noundef -1)
  %84 = icmp eq i32 0, %83
  br i1 %84, label %85, label %99

85:                                               ; preds = %80
  %86 = load ptr, ptr %12, align 8, !tbaa !48
  call void @pmix_obj_run_destructors(ptr noundef %86)
  %87 = load ptr, ptr %12, align 8, !tbaa !48
  %88 = getelementptr inbounds nuw %struct.pmix_object_t, ptr %87, i32 0, i32 3
  %89 = getelementptr inbounds nuw %struct.pmix_tma, ptr %88, i32 0, i32 5
  %90 = load ptr, ptr %89, align 8, !tbaa !58
  %91 = icmp ne ptr null, %90
  br i1 %91, label %92, label %96

92:                                               ; preds = %85
  %93 = load ptr, ptr %12, align 8, !tbaa !48
  %94 = getelementptr inbounds nuw %struct.pmix_object_t, ptr %93, i32 0, i32 3
  %95 = load ptr, ptr %7, align 8, !tbaa !33
  call void @pmix_tma_free(ptr noundef %94, ptr noundef %95)
  br label %98

96:                                               ; preds = %85
  %97 = load ptr, ptr %7, align 8, !tbaa !33
  call void @free(ptr noundef %97) #10
  br label %98

98:                                               ; preds = %96, %92
  store ptr null, ptr %7, align 8, !tbaa !33
  br label %99

99:                                               ; preds = %98, %80
  call void @llvm.lifetime.end.p0(i64 8, ptr %12) #10
  br label %100

100:                                              ; preds = %99
  br label %101

101:                                              ; preds = %100
  store i32 0, ptr %11, align 4
  br label %102

102:                                              ; preds = %101, %73
  call void @llvm.lifetime.end.p0(i64 8, ptr %8) #10
  call void @llvm.lifetime.end.p0(i64 8, ptr %7) #10
  %103 = load i32, ptr %11, align 4
  switch i32 %103, label %105 [
    i32 0, label %104
    i32 1, label %104
  ]

104:                                              ; preds = %102, %102
  ret void

105:                                              ; preds = %102
  unreachable
}