; Function Attrs: nounwind uwtable
define void @pmix_ptl_base_cancel_recv(i32 noundef %0, i16 noundef signext %1, ptr noundef %2) local_unnamed_addr #1 {
  %.046 = load ptr, ptr getelementptr inbounds nuw (i8, ptr @pmix_ptl_base, i64 248), align 8, !tbaa !49
  %.not47 = icmp eq ptr %.046, getelementptr inbounds nuw (i8, ptr @pmix_ptl_base, i64 128)
  br i1 %.not47, label %._crit_edge, label %.lr.ph

.lr.ph:                                           ; preds = %3
  %4 = getelementptr inbounds nuw i8, ptr %2, i64 272
  %5 = load i32, ptr %4, align 8, !tbaa !41
  br label %6

6:                                                ; preds = %.lr.ph, %66
  %.048 = phi ptr [ %.046, %.lr.ph ], [ %11, %66 ]
  %7 = getelementptr inbounds nuw i8, ptr %.048, i64 272
  %8 = load i32, ptr %7, align 8, !tbaa !41
  %9 = icmp eq i32 %8, %5
  %10 = getelementptr inbounds nuw i8, ptr %.048, i64 120
  %11 = load ptr, ptr %10, align 8, !tbaa !49
  br i1 %9, label %12, label %66

12:                                               ; preds = %6
  %13 = getelementptr inbounds nuw i8, ptr %.048, i64 128
  %14 = load ptr, ptr %13, align 8, !tbaa !50
  %15 = getelementptr inbounds nuw i8, ptr %14, i64 120
  store volatile ptr %11, ptr %15, align 8, !tbaa !49
  %16 = getelementptr inbounds nuw i8, ptr %11, i64 128
  store volatile ptr %14, ptr %16, align 8, !tbaa !50
  %17 = load volatile i64, ptr getelementptr inbounds nuw (i8, ptr @pmix_ptl_base, i64 272), align 8, !tbaa !51
  %18 = add i64 %17, -1
  store volatile i64 %18, ptr getelementptr inbounds nuw (i8, ptr @pmix_ptl_base, i64 272), align 8, !tbaa !51
  %19 = tail call i32 @pthread_mutex_lock(ptr noundef %.048) #12
  %20 = icmp eq i32 %19, 35
  br i1 %20, label %21, label %pmix_obj_update.exit31

21:                                               ; preds = %12
  %22 = tail call ptr @__errno_location() #13
  store i32 35, ptr %22, align 4, !tbaa !33
  tail call void @perror(ptr noundef nonnull @.str.2) #14
  tail call void @abort() #15
  unreachable

pmix_obj_update.exit31:                           ; preds = %12
  %23 = getelementptr inbounds nuw i8, ptr %.048, i64 48
  %24 = load i32, ptr %23, align 8, !tbaa !36
  %25 = add nsw i32 %24, -1
  store i32 %25, ptr %23, align 8, !tbaa !36
  %26 = tail call i32 @pthread_mutex_unlock(ptr noundef %.048) #12
  %27 = icmp eq i32 %25, 0
  br i1 %27, label %28, label %42

28:                                               ; preds = %pmix_obj_update.exit31
  %29 = getelementptr inbounds nuw i8, ptr %.048, i64 40
  %30 = load ptr, ptr %29, align 8, !tbaa !35
  %31 = getelementptr inbounds nuw i8, ptr %30, i64 48
  %32 = load ptr, ptr %31, align 8, !tbaa !70
  %33 = load ptr, ptr %32, align 8, !tbaa !38
  %.not6.i = icmp eq ptr %33, null
  br i1 %.not6.i, label %pmix_obj_run_destructors.exit, label %.lr.ph.i

.lr.ph.i:                                         ; preds = %28, %.lr.ph.i
  %34 = phi ptr [ %36, %.lr.ph.i ], [ %33, %28 ]
  %.07.i = phi ptr [ %35, %.lr.ph.i ], [ %32, %28 ]
  tail call void %34(ptr noundef %.048) #12
  %35 = getelementptr inbounds nuw i8, ptr %.07.i, i64 8
  %36 = load ptr, ptr %35, align 8, !tbaa !38
  %.not.i = icmp eq ptr %36, null
  br i1 %.not.i, label %pmix_obj_run_destructors.exit, label %.lr.ph.i, !llvm.loop !71

pmix_obj_run_destructors.exit:                    ; preds = %.lr.ph.i, %28
  %37 = getelementptr inbounds nuw i8, ptr %.048, i64 96
  %38 = load ptr, ptr %37, align 8, !tbaa !72
  %.not28 = icmp eq ptr %38, null
  br i1 %.not28, label %41, label %39

39:                                               ; preds = %pmix_obj_run_destructors.exit
  %40 = getelementptr inbounds nuw i8, ptr %.048, i64 56
  tail call void %38(ptr noundef nonnull %40, ptr noundef nonnull %.048) #12
  br label %42

41:                                               ; preds = %pmix_obj_run_destructors.exit
  tail call void @free(ptr noundef nonnull %.048) #12
  br label %42

42:                                               ; preds = %39, %41, %pmix_obj_update.exit31
  %43 = tail call i32 @pthread_mutex_lock(ptr noundef %2) #12
  %44 = icmp eq i32 %43, 35
  br i1 %44, label %45, label %pmix_obj_update.exit30

45:                                               ; preds = %42
  %46 = tail call ptr @__errno_location() #13
  store i32 35, ptr %46, align 4, !tbaa !33
  tail call void @perror(ptr noundef nonnull @.str.2) #14
  tail call void @abort() #15
  unreachable

pmix_obj_update.exit30:                           ; preds = %42
  %47 = getelementptr inbounds nuw i8, ptr %2, i64 48
  %48 = load i32, ptr %47, align 8, !tbaa !36
  %49 = add nsw i32 %48, -1
  store i32 %49, ptr %47, align 8, !tbaa !36
  %50 = tail call i32 @pthread_mutex_unlock(ptr noundef %2) #12
  %51 = icmp eq i32 %49, 0
  br i1 %51, label %52, label %90

52:                                               ; preds = %pmix_obj_update.exit30
  %53 = getelementptr inbounds nuw i8, ptr %2, i64 40
  %54 = load ptr, ptr %53, align 8, !tbaa !35
  %55 = getelementptr inbounds nuw i8, ptr %54, i64 48
  %56 = load ptr, ptr %55, align 8, !tbaa !70
  %57 = load ptr, ptr %56, align 8, !tbaa !38
  %.not6.i33 = icmp eq ptr %57, null
  br i1 %.not6.i33, label %pmix_obj_run_destructors.exit37, label %.lr.ph.i34

.lr.ph.i34:                                       ; preds = %52, %.lr.ph.i34
  %58 = phi ptr [ %60, %.lr.ph.i34 ], [ %57, %52 ]
  %.07.i35 = phi ptr [ %59, %.lr.ph.i34 ], [ %56, %52 ]
  tail call void %58(ptr noundef %2) #12
  %59 = getelementptr inbounds nuw i8, ptr %.07.i35, i64 8
  %60 = load ptr, ptr %59, align 8, !tbaa !38
  %.not.i36 = icmp eq ptr %60, null
  br i1 %.not.i36, label %pmix_obj_run_destructors.exit37, label %.lr.ph.i34, !llvm.loop !71

pmix_obj_run_destructors.exit37:                  ; preds = %.lr.ph.i34, %52
  %61 = getelementptr inbounds nuw i8, ptr %2, i64 96
  %62 = load ptr, ptr %61, align 8, !tbaa !72
  %.not29 = icmp eq ptr %62, null
  br i1 %.not29, label %65, label %63

63:                                               ; preds = %pmix_obj_run_destructors.exit37
  %64 = getelementptr inbounds nuw i8, ptr %2, i64 56
  tail call void %62(ptr noundef nonnull %64, ptr noundef nonnull %2) #12
  br label %90

65:                                               ; preds = %pmix_obj_run_destructors.exit37
  tail call void @free(ptr noundef nonnull %2) #12
  br label %90

66:                                               ; preds = %6
  %.not = icmp eq ptr %11, getelementptr inbounds nuw (i8, ptr @pmix_ptl_base, i64 128)
  br i1 %.not, label %._crit_edge, label %6, !llvm.loop !74

._crit_edge:                                      ; preds = %66, %3
  %67 = tail call i32 @pthread_mutex_lock(ptr noundef %2) #12
  %68 = icmp eq i32 %67, 35
  br i1 %68, label %69, label %pmix_obj_update.exit

69:                                               ; preds = %._crit_edge
  %70 = tail call ptr @__errno_location() #13
  store i32 35, ptr %70, align 4, !tbaa !33
  tail call void @perror(ptr noundef nonnull @.str.2) #14
  tail call void @abort() #15
  unreachable

pmix_obj_update.exit:                             ; preds = %._crit_edge
  %71 = getelementptr inbounds nuw i8, ptr %2, i64 48
  %72 = load i32, ptr %71, align 8, !tbaa !36
  %73 = add nsw i32 %72, -1
  store i32 %73, ptr %71, align 8, !tbaa !36
  %74 = tail call i32 @pthread_mutex_unlock(ptr noundef %2) #12
  %75 = icmp eq i32 %73, 0
  br i1 %75, label %76, label %90

76:                                               ; preds = %pmix_obj_update.exit
  %77 = getelementptr inbounds nuw i8, ptr %2, i64 40
  %78 = load ptr, ptr %77, align 8, !tbaa !35
  %79 = getelementptr inbounds nuw i8, ptr %78, i64 48
  %80 = load ptr, ptr %79, align 8, !tbaa !70
  %81 = load ptr, ptr %80, align 8, !tbaa !38
  %.not6.i39 = icmp eq ptr %81, null
  br i1 %.not6.i39, label %pmix_obj_run_destructors.exit43, label %.lr.ph.i40

.lr.ph.i40:                                       ; preds = %76, %.lr.ph.i40
  %82 = phi ptr [ %84, %.lr.ph.i40 ], [ %81, %76 ]
  %.07.i41 = phi ptr [ %83, %.lr.ph.i40 ], [ %80, %76 ]
  tail call void %82(ptr noundef %2) #12
  %83 = getelementptr inbounds nuw i8, ptr %.07.i41, i64 8
  %84 = load ptr, ptr %83, align 8, !tbaa !38
  %.not.i42 = icmp eq ptr %84, null
  br i1 %.not.i42, label %pmix_obj_run_destructors.exit43, label %.lr.ph.i40, !llvm.loop !71

pmix_obj_run_destructors.exit43:                  ; preds = %.lr.ph.i40, %76
  %85 = getelementptr inbounds nuw i8, ptr %2, i64 96
  %86 = load ptr, ptr %85, align 8, !tbaa !72
  %.not27 = icmp eq ptr %86, null
  br i1 %.not27, label %89, label %87

87:                                               ; preds = %pmix_obj_run_destructors.exit43
  %88 = getelementptr inbounds nuw i8, ptr %2, i64 56
  tail call void %86(ptr noundef nonnull %88, ptr noundef nonnull %2) #12
  br label %90

89:                                               ; preds = %pmix_obj_run_destructors.exit43
  tail call void @free(ptr noundef nonnull %2) #12
  br label %90

90:                                               ; preds = %pmix_obj_update.exit, %89, %87, %pmix_obj_update.exit30, %65, %63
  ret void
}